target datalayout = "e-m:e-p270:32:32-p271:32:32-p272:64:64-i64:64-i128:128-f80:128-n8:16:32:64-S128"
target triple = "x86_64-unknown-linux-gnu"

%"class.Imf_3_2::TiledRgbaOutputFile" = type { ptr, ptr, ptr }

; Function Attrs: mustprogress uwtable
define void @_ZN7Imf_3_219TiledRgbaOutputFile10writeTilesEiiiiii(ptr noundef nonnull align 8 dereferenceable(24) %this, i32 noundef %dxMin, i32 noundef %dxMax, i32 noundef %dyMin, i32 noundef %dyMax, i32 noundef %lx, i32 noundef %ly) #4 align 2 {
entry:
  %this.addr = alloca ptr, align 8
  %dxMin.addr = alloca i32, align 4
  %dxMax.addr = alloca i32, align 4
  %dyMin.addr = alloca i32, align 4
  %dyMax.addr = alloca i32, align 4
  %lx.addr = alloca i32, align 4
  %ly.addr = alloca i32, align 4
  %dy = alloca i32, align 4
  %dx = alloca i32, align 4
  store ptr %this, ptr %this.addr, align 8
  store i32 %dxMin, ptr %dxMin.addr, align 4
  store i32 %dxMax, ptr %dxMax.addr, align 4
  store i32 %dyMin, ptr %dyMin.addr, align 4
  store i32 %dyMax, ptr %dyMax.addr, align 4
  store i32 %lx, ptr %lx.addr, align 4
  store i32 %ly, ptr %ly.addr, align 4
  %this1 = load ptr, ptr %this.addr, align 8
  %_toYa = getelementptr inbounds %"class.Imf_3_2::TiledRgbaOutputFile", ptr %this1, i32 0, i32 2
  %0 = load ptr, ptr %_toYa, align 8
  %tobool = icmp ne ptr %0, null
  br i1 %tobool, label %if.then, label %if.else

if.then:                                          ; preds = %entry
  %1 = load i32, ptr %dyMin.addr, align 4
  store i32 %1, ptr %dy, align 4
  br label %for.cond

for.cond:                                         ; preds = %for.inc6, %if.then
  %2 = load i32, ptr %dy, align 4
  %3 = load i32, ptr %dyMax.addr, align 4
  %cmp = icmp sle i32 %2, %3
  br i1 %cmp, label %for.body, label %for.end8

for.body:                                         ; preds = %for.cond
  %4 = load i32, ptr %dxMin.addr, align 4
  store i32 %4, ptr %dx, align 4
  br label %for.cond2

for.cond2:                                        ; preds = %for.inc, %for.body
  %5 = load i32, ptr %dx, align 4
  %6 = load i32, ptr %dxMax.addr, align 4
  %cmp3 = icmp sle i32 %5, %6
  br i1 %cmp3, label %for.body4, label %for.end

for.body4:                                        ; preds = %for.cond2
  %_toYa5 = getelementptr inbounds %"class.Imf_3_2::TiledRgbaOutputFile", ptr %this1, i32 0, i32 2
  %7 = load ptr, ptr %_toYa5, align 8
  %8 = load i32, ptr %dx, align 4
  %9 = load i32, ptr %dy, align 4
  %10 = load i32, ptr %lx.addr, align 4
  %11 = load i32, ptr %ly.addr, align 4
  call void @_ZN7Imf_3_219TiledRgbaOutputFile4ToYa9writeTileEiiii(ptr noundef nonnull align 8 dereferenceable(80) %7, i32 noundef %8, i32 noundef %9, i32 noundef %10, i32 noundef %11)
  br label %for.inc

for.inc:                                          ; preds = %for.body4
  %12 = load i32, ptr %dx, align 4
  %inc = add nsw i32 %12, 1
  store i32 %inc, ptr %dx, align 4
  br label %for.cond2, !llvm.loop !7

for.end:                                          ; preds = %for.cond2
  br label %for.inc6

for.inc6:                                         ; preds = %for.end
  %13 = load i32, ptr %dy, align 4
  %inc7 = add nsw i32 %13, 1
  store i32 %inc7, ptr %dy, align 4
  br label %for.cond, !llvm.loop !8

for.end8:                                         ; preds = %for.cond
  br label %if.end

if.else:                                          ; preds = %entry
  %_outputFile = getelementptr inbounds %"class.Imf_3_2::TiledRgbaOutputFile", ptr %this1, i32 0, i32 1
  %14 = load ptr, ptr %_outputFile, align 8
  %15 = load i32, ptr %dxMin.addr, align 4
  %16 = load i32, ptr %dxMax.addr, align 4
  %17 = load i32, ptr %dyMin.addr, align 4
  %18 = load i32, ptr %dyMax.addr, align 4
  %19 = load i32, ptr %lx.addr, align 4
  %20 = load i32, ptr %ly.addr, align 4
  call void @_ZN7Imf_3_215TiledOutputFile10writeTilesEiiiiii(ptr noundef nonnull align 8 dereferenceable(25) %14, i32 noundef %15, i32 noundef %16, i32 noundef %17, i32 noundef %18, i32 noundef %19, i32 noundef %20)
  br label %if.end

if.end:                                           ; preds = %if.else, %for.end8
  ret void
}

; Function Attrs: mustprogress uwtable
define void @_ZN7Imf_3_219TiledRgbaOutputFile10writeTilesEiiiii(ptr noundef nonnull align 8 dereferenceable(24) %this, i32 noundef %dxMin, i32 noundef %dxMax, i32 noundef %dyMin, i32 noundef %dyMax, i32 noundef %l) #4 align 2 {
entry:
  %this.addr = alloca ptr, align 8
  %dxMin.addr = alloca i32, align 4
  %dxMax.addr = alloca i32, align 4
  %dyMin.addr = alloca i32, align 4
  %dyMax.addr = alloca i32, align 4
  %l.addr = alloca i32, align 4
  store ptr %this, ptr %this.addr, align 8
  store i32 %dxMin, ptr %dxMin.addr, align 4
  store i32 %dxMax, ptr %dxMax.addr, align 4
  store i32 %dyMin, ptr %dyMin.addr, align 4
  store i32 %dyMax, ptr %dyMax.addr, align 4
  store i32 %l, ptr %l.addr, align 4
  %this1 = load ptr, ptr %this.addr, align 8
  %0 = load i32, ptr %dxMin.addr, align 4
  %1 = load i32, ptr %dxMax.addr, align 4
  %2 = load i32, ptr %dyMin.addr, align 4
  %3 = load i32, ptr %dyMax.addr, align 4
  %4 = load i32, ptr %l.addr, align 4
  %5 = load i32, ptr %l.addr, align 4
  call void @_ZN7Imf_3_219TiledRgbaOutputFile10writeTilesEiiiiii(ptr noundef nonnull align 8 dereferenceable(24) %this1, i32 noundef %0, i32 noundef %1, i32 noundef %2, i32 noundef %3, i32 noundef %4, i32 noundef %5)
  ret void
}