; Function Attrs: mustprogress uwtable
define void @_ZN7Imf_3_219TiledRgbaOutputFile10writeTilesEiiiii(ptr nocapture noundef nonnull readonly align 8 dereferenceable(24) %this, i32 noundef %dxMin, i32 noundef %dxMax, i32 noundef %dyMin, i32 noundef %dyMax, i32 noundef %l) local_unnamed_addr #3 align 2 {
entry:
  %_toYa.i = getelementptr inbounds i8, ptr %this, i64 16
  %0 = load ptr, ptr %_toYa.i, align 8
  %tobool.not.i = icmp eq ptr %0, null
  br i1 %tobool.not.i, label %if.else.i, label %for.cond.preheader.i

for.cond.preheader.i:                             ; preds = %entry
  %cmp.not13.i = icmp sgt i32 %dyMin, %dyMax
  %cmp3.not11.i = icmp sgt i32 %dxMin, %dxMax
  %or.cond.i = or i1 %cmp3.not11.i, %cmp.not13.i
  br i1 %or.cond.i, label %_ZN7Imf_3_219TiledRgbaOutputFile10writeTilesEiiiiii.exit, label %for.cond2.preheader.i

for.cond2.preheader.i:                            ; preds = %for.cond.preheader.i, %for.cond2.for.inc6_crit_edge.i
  %dy.014.i = phi i32 [ %inc7.i, %for.cond2.for.inc6_crit_edge.i ], [ %dyMin, %for.cond.preheader.i ]
  br label %for.body4.i

for.body4.i:                                      ; preds = %for.body4.i, %for.cond2.preheader.i
  %dx.012.i = phi i32 [ %dxMin, %for.cond2.preheader.i ], [ %inc.i, %for.body4.i ]
  %1 = load ptr, ptr %_toYa.i, align 8
  tail call void @_ZN7Imf_3_219TiledRgbaOutputFile4ToYa9writeTileEiiii(ptr noundef nonnull align 8 dereferenceable(80) %1, i32 noundef %dx.012.i, i32 noundef %dy.014.i, i32 noundef %l, i32 noundef %l)
  %inc.i = add i32 %dx.012.i, 1
  %exitcond.not.i = icmp eq i32 %dx.012.i, %dxMax
  br i1 %exitcond.not.i, label %for.cond2.for.inc6_crit_edge.i, label %for.body4.i, !llvm.loop !8

for.cond2.for.inc6_crit_edge.i:                   ; preds = %for.body4.i
  %inc7.i = add i32 %dy.014.i, 1
  %exitcond16.not.i = icmp eq i32 %dy.014.i, %dyMax
  br i1 %exitcond16.not.i, label %_ZN7Imf_3_219TiledRgbaOutputFile10writeTilesEiiiiii.exit, label %for.cond2.preheader.i, !llvm.loop !9

if.else.i:                                        ; preds = %entry
  %_outputFile.i = getelementptr inbounds i8, ptr %this, i64 8
  %2 = load ptr, ptr %_outputFile.i, align 8
  tail call void @_ZN7Imf_3_215TiledOutputFile10writeTilesEiiiiii(ptr noundef nonnull align 8 dereferenceable(25) %2, i32 noundef %dxMin, i32 noundef %dxMax, i32 noundef %dyMin, i32 noundef %dyMax, i32 noundef %l, i32 noundef %l)
  br label %_ZN7Imf_3_219TiledRgbaOutputFile10writeTilesEiiiiii.exit

_ZN7Imf_3_219TiledRgbaOutputFile10writeTilesEiiiiii.exit: ; preds = %for.cond2.for.inc6_crit_edge.i, %for.cond.preheader.i, %if.else.i
  ret void
}